target datalayout = "e-m:e-p270:32:32-p271:32:32-p272:64:64-i64:64-i128:128-f80:128-n8:16:32:64-S128"
target triple = "x86_64-pc-linux-gnu"

%struct.WebPData = type { ptr, i64 }
%struct.WebPChunkIterator = type { i32, i32, %struct.WebPData, [6 x i32], ptr }

; Function Attrs: nounwind uwtable
define i32 @WebPDemuxPrevChunk(ptr noundef %0) #0 {
  %2 = alloca i32, align 4
  %3 = alloca ptr, align 8
  %4 = alloca ptr, align 8
  store ptr %0, ptr %3, align 8, !tbaa !69
  %5 = load ptr, ptr %3, align 8, !tbaa !69
  %6 = icmp ne ptr %5, null
  br i1 %6, label %7, label %25

7:                                                ; preds = %1
  %8 = load ptr, ptr %3, align 8, !tbaa !69
  %9 = getelementptr inbounds nuw %struct.WebPChunkIterator, ptr %8, i32 0, i32 0
  %10 = load i32, ptr %9, align 8, !tbaa !79
  %11 = icmp sgt i32 %10, 1
  br i1 %11, label %12, label %25

12:                                               ; preds = %7
  call void @llvm.lifetime.start.p0(i64 8, ptr %4) #7
  %13 = load ptr, ptr %3, align 8, !tbaa !69
  %14 = getelementptr inbounds nuw %struct.WebPChunkIterator, ptr %13, i32 0, i32 2
  %15 = getelementptr inbounds nuw %struct.WebPData, ptr %14, i32 0, i32 0
  %16 = load ptr, ptr %15, align 8, !tbaa !75
  %17 = getelementptr inbounds i8, ptr %16, i64 -8
  store ptr %17, ptr %4, align 8, !tbaa !34
  %18 = load ptr, ptr %4, align 8, !tbaa !34
  %19 = load ptr, ptr %3, align 8, !tbaa !69
  %20 = getelementptr inbounds nuw %struct.WebPChunkIterator, ptr %19, i32 0, i32 0
  %21 = load i32, ptr %20, align 8, !tbaa !79
  %22 = sub nsw i32 %21, 1
  %23 = load ptr, ptr %3, align 8, !tbaa !69
  %24 = call i32 @SetChunk(ptr noundef %18, i32 noundef %22, ptr noundef %23)
  store i32 %24, ptr %2, align 4
  call void @llvm.lifetime.end.p0(i64 8, ptr %4) #7
  br label %26

25:                                               ; preds = %7, %1
  store i32 0, ptr %2, align 4
  br label %26

26:                                               ; preds = %25, %12
  %27 = load i32, ptr %2, align 4
  ret i32 %27
}