; Function Attrs: nofree nounwind memory(readwrite, inaccessiblemem: none) uwtable
define range(i32 0, 2) i32 @WebPDemuxPrevChunk(ptr noundef captures(address_is_null) %0) local_unnamed_addr #8 {
  %.not = icmp eq ptr %0, null
  br i1 %.not, label %11, label %2

2:                                                ; preds = %1
  %3 = load i32, ptr %0, align 8, !tbaa !88
  %4 = icmp sgt i32 %3, 1
  br i1 %4, label %5, label %11

5:                                                ; preds = %2
  %6 = getelementptr inbounds nuw i8, ptr %0, i64 8
  %7 = load ptr, ptr %6, align 8, !tbaa !84
  %8 = getelementptr inbounds i8, ptr %7, i64 -8
  %9 = add nsw i32 %3, -1
  %10 = tail call fastcc i32 @SetChunk(ptr noundef nonnull %8, i32 noundef %9, ptr noundef %0)
  br label %11

11:                                               ; preds = %1, %2, %5
  %.0 = phi i32 [ %10, %5 ], [ 0, %2 ], [ 0, %1 ]
  ret i32 %.0
}